; Function Attrs: nounwind uwtable
define internal noundef i32 @seed_cfb128_cipher(ptr noundef %0, ptr noundef %1, ptr noundef %2, i64 noundef %3) #1 {
  %5 = alloca i32, align 4
  %.not = icmp eq i64 %3, 0
  br i1 %.not, label %._crit_edge, label %.lr.ph

.lr.ph:                                           ; preds = %4
  %spec.select = tail call i64 @llvm.umin.i64(i64 %3, i64 1073741824)
  %6 = getelementptr inbounds nuw i8, ptr %0, i64 40
  br label %7

7:                                                ; preds = %.lr.ph, %7
  %.131 = phi i64 [ %spec.select, %.lr.ph ], [ %spec.select27, %7 ]
  %.02230 = phi i64 [ %3, %.lr.ph ], [ %13, %7 ]
  %.02329 = phi ptr [ %2, %.lr.ph ], [ %14, %7 ]
  %.02428 = phi ptr [ %1, %.lr.ph ], [ %15, %7 ]
  call void @llvm.lifetime.start.p0(i64 4, ptr nonnull %5) #5
  %8 = call i32 @EVP_CIPHER_CTX_get_num(ptr noundef %0) #5
  store i32 %8, ptr %5, align 4, !tbaa !5
  %9 = call ptr @EVP_CIPHER_CTX_get_cipher_data(ptr noundef %0) #5
  %10 = call i32 @EVP_CIPHER_CTX_is_encrypting(ptr noundef %0) #5
  call void @SEED_cfb128_encrypt(ptr noundef %.02329, ptr noundef %.02428, i64 noundef %.131, ptr noundef %9, ptr noundef nonnull %6, ptr noundef nonnull %5, i32 noundef %10) #5
  %11 = load i32, ptr %5, align 4, !tbaa !5
  %12 = call i32 @EVP_CIPHER_CTX_set_num(ptr noundef %0, i32 noundef %11) #5
  %13 = sub nuw i64 %.02230, %.131
  %14 = getelementptr inbounds nuw i8, ptr %.02329, i64 %.131
  %15 = getelementptr inbounds nuw i8, ptr %.02428, i64 %.131
  %spec.select27 = call i64 @llvm.umin.i64(i64 %13, i64 %.131)
  call void @llvm.lifetime.end.p0(i64 4, ptr nonnull %5) #5
  %.not32 = icmp eq i64 %13, 0
  br i1 %.not32, label %._crit_edge, label %7, !llvm.loop !9

._crit_edge:                                      ; preds = %7, %4
  ret i32 1
}